target datalayout = "e-m:e-p270:32:32-p271:32:32-p272:64:64-i64:64-i128:128-f80:128-n8:16:32:64-S128"
target triple = "x86_64-pc-linux-gnu"

%"class.OpenColorIO_v2_5dev::CDLParser" = type { ptr, ptr }

@_ZTVN19OpenColorIO_v2_5dev9CDLParserE = hidden unnamed_addr constant { [4 x ptr] } { [4 x ptr] [ptr null, ptr @_ZTIN19OpenColorIO_v2_5dev9CDLParserE, ptr @_ZN19OpenColorIO_v2_5dev9CDLParserD1Ev, ptr @_ZN19OpenColorIO_v2_5dev9CDLParserD0Ev] }, align 8
@_ZN19OpenColorIO_v2_5dev9CDLParser4ImplD1Ev = hidden unnamed_addr alias void (ptr), ptr @_ZN19OpenColorIO_v2_5dev9CDLParser4ImplD2Ev

; Function Attrs: mustprogress nounwind uwtable
define hidden void @_ZN19OpenColorIO_v2_5dev9CDLParserD2Ev(ptr noundef nonnull align 8 dereferenceable(16) %0) unnamed_addr #4 align 2 {
  %2 = alloca ptr, align 8
  store ptr %0, ptr %2, align 8, !tbaa !174
  %3 = load ptr, ptr %2, align 8
  store ptr getelementptr inbounds inrange(-16, 16) ({ [4 x ptr] }, ptr @_ZTVN19OpenColorIO_v2_5dev9CDLParserE, i32 0, i32 0, i32 2), ptr %3, align 8, !tbaa !43
  %4 = getelementptr inbounds nuw %"class.OpenColorIO_v2_5dev::CDLParser", ptr %3, i32 0, i32 1
  %5 = load ptr, ptr %4, align 8, !tbaa !176
  %6 = icmp eq ptr %5, null
  br i1 %6, label %8, label %7

7:                                                ; preds = %1
  call void @_ZN19OpenColorIO_v2_5dev9CDLParser4ImplD1Ev(ptr noundef nonnull align 8 dereferenceable(98) %5) #3
  call void @_ZdlPvm(ptr noundef %5, i64 noundef 104) #24
  br label %8

8:                                                ; preds = %7, %1
  %9 = getelementptr inbounds nuw %"class.OpenColorIO_v2_5dev::CDLParser", ptr %3, i32 0, i32 1
  store ptr null, ptr %9, align 8, !tbaa !176
  ret void
}