; Function Attrs: mustprogress nounwind uwtable
define hidden void @_ZN19OpenColorIO_v2_5dev9CDLParserD2Ev(ptr noundef nonnull align 8 captures(none) dereferenceable(16) initializes((0, 8)) %0) unnamed_addr #3 align 2 {
  store ptr getelementptr inbounds nuw inrange(-16, 16) (i8, ptr @_ZTVN19OpenColorIO_v2_5dev9CDLParserE, i64 16), ptr %0, align 8, !tbaa !40
  %2 = getelementptr inbounds nuw i8, ptr %0, i64 8
  %3 = load ptr, ptr %2, align 8, !tbaa !298
  %4 = icmp eq ptr %3, null
  br i1 %4, label %6, label %5

5:                                                ; preds = %1
  tail call void @_ZN19OpenColorIO_v2_5dev9CDLParser4ImplD2Ev(ptr noundef nonnull align 8 dereferenceable(98) %3) #30
  tail call void @_ZdlPvm(ptr noundef nonnull %3, i64 noundef 104) #31
  br label %6

6:                                                ; preds = %5, %1
  store ptr null, ptr %2, align 8, !tbaa !298
  ret void
}